(lp0
I1
a(lp1
((I10
I230
tp2
I1
tp3
a((I10
I210
tp4
I1
tp5
a((I70
I210
tp6
I0
tp7
a((I90
I210
tp8
I1
tp9
aaI0
aI20
aI1
a.(lp0
I2
a(lp1
((I70
I210
tp2
I1
tp3
a((I70
I200
tp4
I0
tp5
a((I70
I180
tp6
I1
tp7
a((I70
I150
tp8
I0
tp9
aaI0
aI20
aI1
a.(lp0
I3
a(lp1
((I10
I200
tp2
I1
tp3
a((I10
I180
tp4
I1
tp5
a((I30
I180
tp6
I0
tp7
a((I50
I180
tp8
I1
tp9
aaI0
aI20
aI1
a.(lp0
I4
a(lp1
((I30
I180
tp2
I1
tp3
a((I30
I150
tp4
I0
tp5
a((I50
I150
tp6
I1
tp7
a((I50
I180
tp8
I0
tp9
aaI0
aI20
aI1
a.(lp0
I5
a(lp1
((I10
I150
tp2
I1
tp3
a((I10
I130
tp4
I0
tp5
a((I30
I130
tp6
I1
tp7
a((I70
I130
tp8
I0
tp9
aaI0
aI20
aI1
a.(lp0
I6
a(lp1
((I10
I130
tp2
I0
tp3
a((I30
I130
tp4
I1
tp5
a((I30
I90
tp6
I0
tp7
a((I30
I70
tp8
I1
tp9
aaI0
aI20
aI1
a.(lp0
I7
a(lp1
((I30
I90
tp2
I1
tp3
a((I60
I90
tp4
I1
tp5
a((I60
I70
tp6
I0
tp7
a((I40
I70
tp8
I1
tp9
aaI0
aI20
aI1
a.(lp0
I8
a(lp1
((I40
I70
tp2
I0
tp3
a((I60
I70
tp4
I1
tp5
a((I60
I20
tp6
I1
tp7
a((I40
I20
tp8
I1
tp9
aaI0
aI20
aI1
a.(lp0
I9
a(lp1
((I90
I190
tp2
I1
tp3
a((I110
I190
tp4
I1
tp5
a((I100
I160
tp6
I1
tp7
a((I90
I160
tp8
I0
tp9
aaI0
aI20
aI1
a.(lp0
I10
a(lp1
((I70
I150
tp2
I0
tp3
a((I90
I150
tp4
I0
tp5
a((I90
I130
tp6
I0
tp7
a((I70
I130
tp8
I0
tp9
aaI0
aI20
aI1
a.(lp0
I11
a(lp1
((I90
I150
tp2
I0
tp3
a((I90
I130
tp4
I1
tp5
a((I170
I130
tp6
I1
tp7
a((I170
I150
tp8
I0
tp9
aaI0
aI20
aI1
a.(lp0
I12
a(lp1
((I170
I150
tp2
I0
tp3
a((I150
I150
tp4
I1
tp5
a((I150
I160
tp6
I0
tp7
a((I150
I180
tp8
I1
tp9
aaI0
aI20
aI1
a.(lp0
I13
a(lp1
((I150
I180
tp2
I1
tp3
a((I120
I180
tp4
I1
tp5
a((I120
I160
tp6
I1
tp7
a((I150
I160
tp8
I0
tp9
aaI0
aI20
aI1
a.(lp0
I14
a(lp1
((I150
I210
tp2
I1
tp3
a((I120
I210
tp4
I1
tp5
a((I120
I190
tp6
I1
tp7
a((I150
I190
tp8
I0
tp9
aaI0
aI20
aI1
a.(lp0
I15
a(lp1
((I70
I130
tp2
I0
tp3
a((I90
I130
tp4
I1
tp5
a((I90
I70
tp6
I0
tp7
a((I70
I70
tp8
I1
tp9
aaI0
aI20
aI1
a.(lp0
I16
a(lp1
((I70
I70
tp2
I0
tp3
a((I90
I70
tp4
I1
tp5
a((I170
I70
tp6
I1
tp7
a((I170
I50
tp8
I1
tp9
aaI0
aI20
aI1
a.(lp0
I17
a(lp1
((I80
I40
tp2
I1
tp3
a((I80
I20
tp4
I1
tp5
a((I100
I20
tp6
I1
tp7
a((I100
I50
tp8
I0
tp9
aaI0
aI20
aI1
a.(lp0
I18
a(lp1
((I105
I50
tp2
I1
tp3
a((I105
I20
tp4
I1
tp5
a((I125
I20
tp6
I1
tp7
a((I125
I50
tp8
I0
tp9
aaI0
aI20
aI1
a.(lp0
I19
a(lp1
((I130
I50
tp2
I1
tp3
a((I130
I20
tp4
I1
tp5
a((I150
I20
tp6
I1
tp7
a((I150
I50
tp8
I0
tp9
aaI0
aI20
aI1
a.(lp0
I20
a(lp1
((I120
I130
tp2
I1
tp3
a((I120
I110
tp4
I0
tp5
a((I140
I110
tp6
I1
tp7
a((I140
I130
tp8
I0
tp9
aaI0
aI20
aI1
a.(lp0
I21
a(lp1
((I120
I110
tp2
I0
tp3
a((I140
I110
tp4
I1
tp5
a((I170
I110
tp6
I1
tp7
a((I170
I90
tp8
I1
tp9
aaI0
aI20
aI1
a.