(lp0
I1
a(lp1
((I10
I180
tp2
I1
tp3
a((I10
I160
tp4
I1
tp5
a((I80
I160
tp6
I0
tp7
a((I80
I180
tp8
I1
tp9
aaI0
aI20
aI1
a(lp10
I2
aa.(lp0
I2
a(lp1
((I80
I180
tp2
I0
tp3
a((I80
I160
tp4
I0
tp5
a((I100
I160
tp6
I1
tp7
a((I100
I180
tp8
I1
tp9
aaI0
aI20
aI1
a(lp10
I1
aI3
aa.(lp0
I3
a(lp1
((I80
I160
tp2
I1
tp3
a((I80
I130
tp4
I0
tp5
a((I100
I130
tp6
I1
tp7
a((I100
I160
tp8
I0
tp9
aaI0
aI20
aI1
a(lp10
I4
aI2
aa.(lp0
I4
a(lp1
((I80
I130
tp2
I0
tp3
a((I80
I110
tp4
I0
tp5
a((I100
I110
tp6
I0
tp7
a((I100
I130
tp8
I0
tp9
aaI0
aI20
aI1
a(lp10
I5
aI8
aI9
aI3
aa.(lp0
I5
a(lp1
((I60
I130
tp2
I0
tp3
a((I60
I110
tp4
I1
tp5
a((I80
I110
tp6
I0
tp7
a((I80
I130
tp8
I1
tp9
aaI0
aI20
aI1
a(lp10
I6
aI4
aa.(lp0
I6
a(lp1
((I40
I130
tp2
I1
tp3
a((I40
I110
tp4
I0
tp5
a((I60
I110
tp6
I0
tp7
a((I60
I130
tp8
I1
tp9
aaI0
aI20
aI1
a(lp10
I7
aI5
aa.(lp0
I7
a(lp1
((I40
I110
tp2
I1
tp3
a((I40
I90
tp4
I1
tp5
a((I60
I90
tp6
I1
tp7
a((I60
I110
tp8
I0
tp9
aaI0
aI20
aI1
a(lp10
I6
aa.(lp0
I8
a(lp1
((I80
I110
tp2
I1
tp3
a((I80
I90
tp4
I1
tp5
a((I100
I90
tp6
I1
tp7
a((I100
I110
tp8
I0
tp9
aaI0
aI20
aI1
a(lp10
I4
aa.(lp0
I9
a(lp1
((I100
I130
tp2
I0
tp3
a((I100
I110
tp4
I1
tp5
a((I140
I110
tp6
I1
tp7
a((I140
I130
tp8
I1
tp9
aaI0
aI20
aI1
a(lp10
I4
aa.